target datalayout = "e-m:e-p270:32:32-p271:32:32-p272:64:64-i64:64-i128:128-f80:128-n8:16:32:64-S128"
target triple = "x86_64-unknown-linux-gnu"

; Function Attrs: nounwind sspstrong uwtable
define internal { i64, i64 } @int128_make128(i64 noundef %lo, i64 noundef %hi) #1 {
entry:
  %retval = alloca i128, align 16
  %lo.addr = alloca i64, align 8
  %hi.addr = alloca i64, align 8
  store i64 %lo, ptr %lo.addr, align 8
  store i64 %hi, ptr %hi.addr, align 8
  %0 = load i64, ptr %hi.addr, align 8
  %conv = zext i64 %0 to i128
  %shl = shl i128 %conv, 64
  %1 = load i64, ptr %lo.addr, align 8
  %conv1 = zext i64 %1 to i128
  %or = or i128 %shl, %conv1
  store i128 %or, ptr %retval, align 16
  %2 = load { i64, i64 }, ptr %retval, align 16
  ret { i64, i64 } %2
}

; Function Attrs: nounwind sspstrong uwtable
define dso_local void @helper_csrw_i128(ptr noundef %env, i32 noundef %csr, i64 noundef %srcl, i64 noundef %srch) #1 {
entry:
  %env.addr = alloca ptr, align 8
  %csr.addr = alloca i32, align 4
  %srcl.addr = alloca i64, align 8
  %srch.addr = alloca i64, align 8
  %ret = alloca i32, align 4
  %coerce = alloca i128, align 16
  %coerce2 = alloca i128, align 16
  %coerce3 = alloca i128, align 16
  store ptr %env, ptr %env.addr, align 8
  store i32 %csr, ptr %csr.addr, align 4
  store i64 %srcl, ptr %srcl.addr, align 8
  store i64 %srch, ptr %srch.addr, align 8
  %0 = load ptr, ptr %env.addr, align 8
  %1 = load i32, ptr %csr.addr, align 4
  %2 = load i64, ptr %srcl.addr, align 8
  %3 = load i64, ptr %srch.addr, align 8
  %call = call { i64, i64 } @int128_make128(i64 noundef %2, i64 noundef %3)
  %4 = getelementptr inbounds { i64, i64 }, ptr %coerce, i32 0, i32 0
  %5 = extractvalue { i64, i64 } %call, 0
  store i64 %5, ptr %4, align 16
  %6 = getelementptr inbounds { i64, i64 }, ptr %coerce, i32 0, i32 1
  %7 = extractvalue { i64, i64 } %call, 1
  store i64 %7, ptr %6, align 8
  %8 = load i128, ptr %coerce, align 16
  %call1 = call { i64, i64 } @int128_make128(i64 noundef -1, i64 noundef -1)
  %9 = getelementptr inbounds { i64, i64 }, ptr %coerce2, i32 0, i32 0
  %10 = extractvalue { i64, i64 } %call1, 0
  store i64 %10, ptr %9, align 16
  %11 = getelementptr inbounds { i64, i64 }, ptr %coerce2, i32 0, i32 1
  %12 = extractvalue { i64, i64 } %call1, 1
  store i64 %12, ptr %11, align 8
  %13 = load i128, ptr %coerce2, align 16
  store i128 %8, ptr %coerce3, align 16
  %14 = getelementptr inbounds { i64, i64 }, ptr %coerce3, i32 0, i32 0
  %15 = load i64, ptr %14, align 16
  %16 = getelementptr inbounds { i64, i64 }, ptr %coerce3, i32 0, i32 1
  %17 = load i64, ptr %16, align 8
  %call4 = call i32 @riscv_csrrw_i128(ptr noundef %0, i32 noundef %1, ptr noundef null, i64 noundef %15, i64 noundef %17, i128 noundef %13)
  store i32 %call4, ptr %ret, align 4
  %18 = load i32, ptr %ret, align 4
  %cmp = icmp ne i32 %18, -1
  br i1 %cmp, label %if.then, label %if.end

if.then:                                          ; preds = %entry
  %19 = load ptr, ptr %env.addr, align 8
  %20 = load i32, ptr %ret, align 4
  %21 = call ptr @llvm.returnaddress(i32 0)
  %22 = ptrtoint ptr %21 to i64
  call void @riscv_raise_exception(ptr noundef %19, i32 noundef %20, i64 noundef %22) #6
  unreachable

if.end:                                           ; preds = %entry
  ret void
}