; Function Attrs: nounwind sspstrong uwtable
define dso_local void @helper_csrw_i128(ptr noundef %env, i32 noundef %csr, i64 noundef %srcl, i64 noundef %srch) local_unnamed_addr #2 {
entry:
  %call4 = tail call i32 @riscv_csrrw_i128(ptr noundef %env, i32 noundef %csr, ptr noundef null, i64 noundef %srcl, i64 noundef %srch, i128 noundef -1) #9
  %cmp.not = icmp eq i32 %call4, -1
  br i1 %cmp.not, label %if.end, label %if.then

if.then:                                          ; preds = %entry
  %0 = tail call ptr @llvm.returnaddress(i32 0)
  %1 = ptrtoint ptr %0 to i64
  tail call void @riscv_raise_exception(ptr noundef %env, i32 noundef %call4, i64 noundef %1) #8
  unreachable

if.end:                                           ; preds = %entry
  ret void
}